ccopy_reg
_reconstructor
p1
(cnetworkx.classes.digraph
DiGraph
p2
c__builtin__
object
p3
NtRp4
(dp5
S'node'
p6
(dp7
S'robertdeniro.html'
p8
(dp9
sS'angelinajolie.html'
p10
(dp11
sS'martinscorcese.html'
p12
(dp13
sS'jonvoight.html'
p14
(dp15
sS'bradpitt.html'
p16
(dp17
sS'jenniferaniston.html'
p18
(dp19
ssS'graph'
p20
(dp21
sS'succ'
p22
(dp23
g8
(dp24
S'martinscorcese.html'
p25
(dp26
S'weight'
p27
I1
sssg10
(dp28
S'bradpitt.html'
p29
(dp30
g27
I1
ssS'jonvoight.html'
p31
(dp32
g27
I1
sssg12
(dp33
sg14
(dp34
S'bradpitt.html'
p35
(dp36
g27
I1
ssS'angelinajolie.html'
p37
(dp38
g27
I2
sssg16
(dp39
S'jenniferaniston.html'
p40
(dp41
g27
I1
ssS'angelinajolie.html'
p42
(dp43
g27
I2
ssS'martinscorcese.html'
p44
(dp45
g27
I1
sssg18
(dp46
ssS'edge'
p47
g23
sS'pred'
p48
(dp49
g8
(dp50
sg10
(dp51
g16
g43
sg14
g38
ssg12
(dp52
g8
g26
sg16
g45
ssg14
(dp53
g10
g32
ssg16
(dp54
g10
g30
sg14
g36
ssg18
(dp55
g16
g41
sssS'adj'
p56
g23
sb.