ccopy_reg
_reconstructor
p1
(cnetworkx.classes.digraph
DiGraph
p2
c__builtin__
object
p3
NtRp4
(dp5
S'adjlist_inner_dict_factory'
p6
c__builtin__
dict
p7
sS'node_dict_factory'
p8
g7
sS'edge_attr_dict_factory'
p9
g7
sS'_node'
p10
(dp11
S'robertdeniro.html'
p12
(dp13
sS'angelinajolie.html'
p14
(dp15
sS'martinscorcese.html'
p16
(dp17
sS'jonvoight.html'
p18
(dp19
sS'bradpitt.html'
p20
(dp21
sS'jenniferaniston.html'
p22
(dp23
ssS'graph'
p24
(dp25
sS'root_graph'
p26
g4
sS'_pred'
p27
(dp28
g12
(dp29
sg14
(dp30
g20
(dp31
S'weight'
p32
I2
ssg18
(dp33
g32
I2
sssg16
(dp34
g12
(dp35
g32
I1
ssg20
(dp36
g32
I1
sssg18
(dp37
g14
(dp38
g32
I1
sssg20
(dp39
g14
(dp40
g32
I1
ssg18
(dp41
g32
I1
sssg22
(dp42
g20
(dp43
g32
I1
ssssS'_succ'
p44
(dp45
g12
(dp46
S'martinscorcese.html'
p47
g35
ssg14
(dp48
S'bradpitt.html'
p49
g40
sS'jonvoight.html'
p50
g38
ssg16
(dp51
sg18
(dp52
S'bradpitt.html'
p53
g41
sS'angelinajolie.html'
p54
g33
ssg20
(dp55
S'jenniferaniston.html'
p56
g43
sS'angelinajolie.html'
p57
g31
sS'martinscorcese.html'
p58
g36
ssg22
(dp59
ssS'_adj'
p60
g45
sS'adjlist_outer_dict_factory'
p61
g7
sb.